Certificate:
    Data:
        Version: 3 (0x2)
        Serial Number: 1 (0x1)
        Signature Algorithm: md5WithRSAEncryption
        Issuer: C=TW, ST=TW, L=Taipei, O=home, OU=home, CN=allen/emailAddress=gunfighter@mail2000.com.tw
        Validity
            Not Before: Apr 11 06:27:01 2013 GMT
            Not After : Apr  9 06:27:01 2023 GMT
        Subject: C=TW, ST=TW, O=home, OU=home, CN=allen/emailAddress=gunfighter@mail2000.com.tw
        Subject Public Key Info:
            Public Key Algorithm: rsaEncryption
            RSA Public Key: (1024 bit)
                Modulus (1024 bit):
                    00:b7:4d:80:1a:6f:1e:9b:53:20:6c:2c:f8:89:f2:
                    1c:d8:6e:ea:7c:97:6f:23:9e:2a:e2:38:37:68:48:
                    9e:bd:35:1d:8e:0d:61:fa:98:02:38:6a:ef:65:9b:
                    62:c7:72:d6:fa:57:3a:97:4f:a0:7a:95:d0:b1:31:
                    99:33:bc:63:ab:66:a8:10:5e:62:0b:04:44:c7:4e:
                    2b:22:0e:39:8f:20:29:2d:c1:4c:10:69:20:46:4f:
                    82:5f:8c:ff:8e:a1:83:48:1e:03:5d:6d:33:e9:cf:
                    85:c8:13:96:4a:7c:af:38:32:67:92:df:8b:9d:fa:
                    42:48:e4:f7:e0:88:37:78:8d
                Exponent: 65537 (0x10001)
        X509v3 extensions:
            X509v3 Basic Constraints: 
                CA:FALSE
            Netscape Comment: 
                OpenSSL Generated Certificate
            X509v3 Subject Key Identifier: 
                28:1B:04:00:20:2C:9B:79:88:9C:1A:9D:DA:9F:E1:DF:DA:7D:59:C8
            X509v3 Authority Key Identifier: 
                keyid:B9:B0:4B:48:41:F9:98:3E:0B:39:57:2D:C7:46:37:0A:4F:0B:CB:BC
                DirName:/C=TW/ST=TW/L=Taipei/O=home/OU=home/CN=allen/emailAddress=gunfighter@mail2000.com.tw
                serial:B6:C2:2D:80:29:3D:DB:1F

    Signature Algorithm: md5WithRSAEncryption
        43:ad:b7:03:42:c3:dc:ec:6e:53:29:15:f5:78:c4:64:37:64:
        e8:d2:8f:67:33:67:32:85:d5:f7:d2:2d:c5:b1:b6:60:51:4f:
        2b:6e:0c:8f:ee:e6:ab:bd:e7:ad:58:45:71:f5:8a:da:0d:4b:
        da:ab:21:7d:ce:81:aa:5b:a6:cd:46:71:28:9c:6f:7a:a5:f1:
        d3:e2:42:b8:81:5b:b5:54:d9:20:45:f2:3b:bd:9f:e3:bc:d8:
        a4:91:eb:3e:43:99:b1:be:0d:03:30:d7:a1:17:36:54:c4:08:
        49:2d:7c:dc:36:b5:11:c0:fe:2d:63:a3:88:e9:38:27:c8:e3:
        4a:d1
-----BEGIN CERTIFICATE-----
MIIDiDCCAvGgAwIBAgIBATANBgkqhkiG9w0BAQQFADCBhDELMAkGA1UEBhMCVFcx
CzAJBgNVBAgTAlRXMQ8wDQYDVQQHEwZUYWlwZWkxDTALBgNVBAoTBGhvbWUxDTAL
BgNVBAsTBGhvbWUxDjAMBgNVBAMTBWFsbGVuMSkwJwYJKoZIhvcNAQkBFhpndW5m
aWdodGVyQG1haWwyMDAwLmNvbS50dzAeFw0xMzA0MTEwNjI3MDFaFw0yMzA0MDkw
NjI3MDFaMHMxCzAJBgNVBAYTAlRXMQswCQYDVQQIEwJUVzENMAsGA1UEChMEaG9t
ZTENMAsGA1UECxMEaG9tZTEOMAwGA1UEAxMFYWxsZW4xKTAnBgkqhkiG9w0BCQEW
Gmd1bmZpZ2h0ZXJAbWFpbDIwMDAuY29tLnR3MIGfMA0GCSqGSIb3DQEBAQUAA4GN
ADCBiQKBgQC3TYAabx6bUyBsLPiJ8hzYbup8l28jniriODdoSJ69NR2ODWH6mAI4
au9lm2LHctb6VzqXT6B6ldCxMZkzvGOrZqgQXmILBETHTisiDjmPICktwUwQaSBG
T4JfjP+OoYNIHgNdbTPpz4XIE5ZKfK84MmeS34ud+kJI5PfgiDd4jQIDAQABo4IB
GDCCARQwCQYDVR0TBAIwADAsBglghkgBhvhCAQ0EHxYdT3BlblNTTCBHZW5lcmF0
ZWQgQ2VydGlmaWNhdGUwHQYDVR0OBBYEFCgbBAAgLJt5iJwandqf4d/afVnIMIG5
BgNVHSMEgbEwga6AFLmwS0hB+Zg+CzlXLcdGNwpPC8u8oYGKpIGHMIGEMQswCQYD
VQQGEwJUVzELMAkGA1UECBMCVFcxDzANBgNVBAcTBlRhaXBlaTENMAsGA1UEChME
aG9tZTENMAsGA1UECxMEaG9tZTEOMAwGA1UEAxMFYWxsZW4xKTAnBgkqhkiG9w0B
CQEWGmd1bmZpZ2h0ZXJAbWFpbDIwMDAuY29tLnR3ggkAtsItgCk92x8wDQYJKoZI
hvcNAQEEBQADgYEAQ623A0LD3OxuUykV9XjEZDdk6NKPZzNnMoXV99ItxbG2YFFP
K24Mj+7mq73nrVhFcfWK2g1L2qshfc6BqlumzUZxKJxveqXx0+JCuIFbtVTZIEXy
O72f47zYpJHrPkOZsb4NAzDXoRc2VMQISS183Da1EcD+LWOjiOk4J8jjStE=
-----END CERTIFICATE-----
